; Function Attrs: mustprogress nofree norecurse nosync nounwind willreturn memory(argmem: read) uwtable
define noundef zeroext i1 @_ZNK3net20QuicUnackedPacketMap29IsPacketUsefulForMeasuringRttEmRKNS_16TransmissionInfoE(ptr noundef nonnull readonly align 8 captures(none) dereferenceable(120) %0, i64 noundef %1, ptr noundef nonnull readonly align 8 captures(none) dereferenceable(80) %2) local_unnamed_addr #7 align 2 {
  %4 = getelementptr inbounds nuw i8, ptr %2, i64 42
  %5 = load i8, ptr %4, align 2, !tbaa !67, !range !94, !noundef !95
  %6 = trunc nuw i8 %5 to i1
  %7 = getelementptr inbounds nuw i8, ptr %0, i64 8
  %8 = load i64, ptr %7, align 8
  %9 = icmp ugt i64 %1, %8
  %not. = xor i1 %6, true
  %10 = select i1 %not., i1 %9, i1 false
  ret i1 %10
}